target datalayout = "e-m:e-p270:32:32-p271:32:32-p272:64:64-i64:64-i128:128-f80:128-n8:16:32:64-S128"
target triple = "x86_64-pc-linux-gnu"

%struct.xorkey_st = type { [32 x i8], [32 x i8], i32, i32, ptr, %struct.CRYPTO_REF_COUNT }
%struct.CRYPTO_REF_COUNT = type { i32 }
%struct.PROV_XORSIG_CTX = type { ptr, ptr, ptr, i8, [50 x i8], ptr, i64, ptr, ptr, i32 }

@.str.2 = private unnamed_addr constant [31 x i8] c"../openssl/test/tls-provider.c\00", align 1
@__func__.xor_sig_signverify_init = private unnamed_addr constant [24 x i8] c"xor_sig_signverify_init\00", align 1
@.str.69 = private unnamed_addr constant [7 x i8] c"sha256\00", align 1

; Function Attrs: inlinehint nounwind uwtable
define internal i32 @CRYPTO_UP_REF(ptr noundef %0, ptr noundef %1) #3 {
  %3 = alloca ptr, align 8
  %4 = alloca ptr, align 8
  %5 = alloca i32, align 4
  %6 = alloca i32, align 4
  store ptr %0, ptr %3, align 8, !tbaa !13
  store ptr %1, ptr %4, align 8, !tbaa !33
  %7 = load ptr, ptr %3, align 8, !tbaa !13
  %8 = getelementptr inbounds nuw %struct.CRYPTO_REF_COUNT, ptr %7, i32 0, i32 0
  store i32 1, ptr %5, align 4, !tbaa !27
  %9 = load i32, ptr %5, align 4
  %10 = atomicrmw add ptr %8, i32 %9 monotonic, align 4
  store i32 %10, ptr %6, align 4
  %11 = load i32, ptr %6, align 4, !tbaa !27
  %12 = add nsw i32 %11, 1
  %13 = load ptr, ptr %4, align 8, !tbaa !33
  store i32 %12, ptr %13, align 4, !tbaa !27
  ret i32 1
}

; Function Attrs: inlinehint nounwind uwtable
define internal void @CRYPTO_FREE_REF(ptr noundef %0) #3 {
  %2 = alloca ptr, align 8
  store ptr %0, ptr %2, align 8, !tbaa !13
  ret void
}

; Function Attrs: inlinehint nounwind uwtable
define internal i32 @CRYPTO_DOWN_REF(ptr noundef %0, ptr noundef %1) #3 {
  %3 = alloca ptr, align 8
  %4 = alloca ptr, align 8
  %5 = alloca i32, align 4
  %6 = alloca i32, align 4
  store ptr %0, ptr %3, align 8, !tbaa !13
  store ptr %1, ptr %4, align 8, !tbaa !33
  %7 = load ptr, ptr %3, align 8, !tbaa !13
  %8 = getelementptr inbounds nuw %struct.CRYPTO_REF_COUNT, ptr %7, i32 0, i32 0
  store i32 1, ptr %5, align 4, !tbaa !27
  %9 = load i32, ptr %5, align 4
  %10 = atomicrmw sub ptr %8, i32 %9 release, align 4
  store i32 %10, ptr %6, align 4
  %11 = load i32, ptr %6, align 4, !tbaa !27
  %12 = sub nsw i32 %11, 1
  %13 = load ptr, ptr %4, align 8, !tbaa !33
  store i32 %12, ptr %13, align 4, !tbaa !27
  %14 = load ptr, ptr %4, align 8, !tbaa !33
  %15 = load i32, ptr %14, align 4, !tbaa !27
  %16 = icmp eq i32 %15, 0
  br i1 %16, label %17, label %18

17:                                               ; preds = %2
  fence acquire
  br label %18

18:                                               ; preds = %17, %2
  ret i32 1
}

; Function Attrs: nounwind uwtable
define internal i32 @xor_key_up_ref(ptr noundef %0) #0 {
  %2 = alloca i32, align 4
  %3 = alloca ptr, align 8
  %4 = alloca i32, align 4
  %5 = alloca i32, align 4
  store ptr %0, ptr %3, align 8, !tbaa !41
  call void @llvm.lifetime.start.p0(i64 4, ptr %4) #8
  %6 = load ptr, ptr %3, align 8, !tbaa !41
  %7 = getelementptr inbounds nuw %struct.xorkey_st, ptr %6, i32 0, i32 5
  %8 = call i32 @CRYPTO_UP_REF(ptr noundef %7, ptr noundef %4)
  %9 = icmp sle i32 %8, 0
  br i1 %9, label %10, label %11

10:                                               ; preds = %1
  store i32 0, ptr %2, align 4
  store i32 1, ptr %5, align 4
  br label %15

11:                                               ; preds = %1
  %12 = load i32, ptr %4, align 4, !tbaa !27
  %13 = icmp sgt i32 %12, 1
  %14 = zext i1 %13 to i32
  store i32 %14, ptr %2, align 4
  store i32 1, ptr %5, align 4
  br label %15

15:                                               ; preds = %11, %10
  call void @llvm.lifetime.end.p0(i64 4, ptr %4) #8
  %16 = load i32, ptr %2, align 4
  ret i32 %16
}

; Function Attrs: nounwind uwtable
define internal void @xor_freekey(ptr noundef %0) #0 {
  %2 = alloca ptr, align 8
  %3 = alloca ptr, align 8
  %4 = alloca i32, align 4
  %5 = alloca i32, align 4
  store ptr %0, ptr %2, align 8, !tbaa !13
  call void @llvm.lifetime.start.p0(i64 8, ptr %3) #8
  %6 = load ptr, ptr %2, align 8, !tbaa !13
  store ptr %6, ptr %3, align 8, !tbaa !41
  call void @llvm.lifetime.start.p0(i64 4, ptr %4) #8
  %7 = load ptr, ptr %3, align 8, !tbaa !41
  %8 = icmp eq ptr %7, null
  br i1 %8, label %9, label %10

9:                                                ; preds = %1
  store i32 1, ptr %5, align 4
  br label %33

10:                                               ; preds = %1
  %11 = load ptr, ptr %3, align 8, !tbaa !41
  %12 = getelementptr inbounds nuw %struct.xorkey_st, ptr %11, i32 0, i32 5
  %13 = call i32 @CRYPTO_DOWN_REF(ptr noundef %12, ptr noundef %4)
  %14 = icmp sle i32 %13, 0
  br i1 %14, label %15, label %16

15:                                               ; preds = %10
  store i32 1, ptr %5, align 4
  br label %33

16:                                               ; preds = %10
  %17 = load i32, ptr %4, align 4, !tbaa !27
  %18 = icmp sgt i32 %17, 0
  br i1 %18, label %19, label %20

19:                                               ; preds = %16
  store i32 1, ptr %5, align 4
  br label %33

20:                                               ; preds = %16
  %21 = load ptr, ptr %3, align 8, !tbaa !41
  %22 = icmp ne ptr %21, null
  br i1 %22, label %23, label %29

23:                                               ; preds = %20
  %24 = load ptr, ptr %3, align 8, !tbaa !41
  %25 = getelementptr inbounds nuw %struct.xorkey_st, ptr %24, i32 0, i32 4
  %26 = load ptr, ptr %25, align 8, !tbaa !59
  call void @CRYPTO_free(ptr noundef %26, ptr noundef @.str.2, i32 noundef 720)
  %27 = load ptr, ptr %3, align 8, !tbaa !41
  %28 = getelementptr inbounds nuw %struct.xorkey_st, ptr %27, i32 0, i32 4
  store ptr null, ptr %28, align 8, !tbaa !59
  br label %29

29:                                               ; preds = %23, %20
  %30 = load ptr, ptr %3, align 8, !tbaa !41
  %31 = getelementptr inbounds nuw %struct.xorkey_st, ptr %30, i32 0, i32 5
  call void @CRYPTO_FREE_REF(ptr noundef %31)
  %32 = load ptr, ptr %3, align 8, !tbaa !41
  call void @CRYPTO_free(ptr noundef %32, ptr noundef @.str.2, i32 noundef 724)
  store i32 0, ptr %5, align 4
  br label %33

33:                                               ; preds = %29, %19, %15, %9
  call void @llvm.lifetime.end.p0(i64 4, ptr %4) #8
  call void @llvm.lifetime.end.p0(i64 8, ptr %3) #8
  %34 = load i32, ptr %5, align 4
  switch i32 %34, label %36 [
    i32 0, label %35
    i32 1, label %35
  ]

35:                                               ; preds = %33, %33
  ret void

36:                                               ; preds = %33
  unreachable
}

; Function Attrs: nounwind uwtable
define internal i32 @xor_sig_signverify_init(ptr noundef %0, ptr noundef %1, i32 noundef %2) #0 {
  %4 = alloca i32, align 4
  %5 = alloca ptr, align 8
  %6 = alloca ptr, align 8
  %7 = alloca i32, align 4
  %8 = alloca ptr, align 8
  %9 = alloca i32, align 4
  store ptr %0, ptr %5, align 8, !tbaa !13
  store ptr %1, ptr %6, align 8, !tbaa !13
  store i32 %2, ptr %7, align 4, !tbaa !27
  call void @llvm.lifetime.start.p0(i64 8, ptr %8) #8
  %10 = load ptr, ptr %5, align 8, !tbaa !13
  store ptr %10, ptr %8, align 8, !tbaa !13
  %11 = load ptr, ptr %8, align 8, !tbaa !13
  %12 = icmp eq ptr %11, null
  br i1 %12, label %16, label %13

13:                                               ; preds = %3
  %14 = load ptr, ptr %6, align 8, !tbaa !13
  %15 = icmp eq ptr %14, null
  br i1 %15, label %16, label %17

16:                                               ; preds = %13, %3
  store i32 0, ptr %4, align 4
  store i32 1, ptr %9, align 4
  br label %49

17:                                               ; preds = %13
  %18 = load ptr, ptr %8, align 8, !tbaa !13
  %19 = getelementptr inbounds nuw %struct.PROV_XORSIG_CTX, ptr %18, i32 0, i32 2
  %20 = load ptr, ptr %19, align 8, !tbaa !145
  call void @xor_freekey(ptr noundef %20)
  %21 = load ptr, ptr %6, align 8, !tbaa !13
  %22 = call i32 @xor_key_up_ref(ptr noundef %21)
  %23 = icmp ne i32 %22, 0
  br i1 %23, label %25, label %24

24:                                               ; preds = %17
  store i32 0, ptr %4, align 4
  store i32 1, ptr %9, align 4
  br label %49

25:                                               ; preds = %17
  %26 = load ptr, ptr %6, align 8, !tbaa !13
  %27 = load ptr, ptr %8, align 8, !tbaa !13
  %28 = getelementptr inbounds nuw %struct.PROV_XORSIG_CTX, ptr %27, i32 0, i32 2
  store ptr %26, ptr %28, align 8, !tbaa !145
  %29 = load i32, ptr %7, align 4, !tbaa !27
  %30 = load ptr, ptr %8, align 8, !tbaa !13
  %31 = getelementptr inbounds nuw %struct.PROV_XORSIG_CTX, ptr %30, i32 0, i32 9
  store i32 %29, ptr %31, align 8, !tbaa !154
  %32 = load i32, ptr %7, align 4, !tbaa !27
  %33 = icmp eq i32 %32, 16
  br i1 %33, label %34, label %39

34:                                               ; preds = %25
  %35 = load ptr, ptr %8, align 8, !tbaa !13
  %36 = getelementptr inbounds nuw %struct.PROV_XORSIG_CTX, ptr %35, i32 0, i32 2
  %37 = load ptr, ptr %36, align 8, !tbaa !145
  %38 = icmp eq ptr %37, null
  br i1 %38, label %47, label %39

39:                                               ; preds = %34, %25
  %40 = load i32, ptr %7, align 4, !tbaa !27
  %41 = icmp eq i32 %40, 32
  br i1 %41, label %42, label %48

42:                                               ; preds = %39
  %43 = load ptr, ptr %8, align 8, !tbaa !13
  %44 = getelementptr inbounds nuw %struct.PROV_XORSIG_CTX, ptr %43, i32 0, i32 2
  %45 = load ptr, ptr %44, align 8, !tbaa !145
  %46 = icmp eq ptr %45, null
  br i1 %46, label %47, label %48

47:                                               ; preds = %42, %34
  call void @ERR_new()
  call void @ERR_set_debug(ptr noundef @.str.2, i32 noundef 2719, ptr noundef @__func__.xor_sig_signverify_init)
  call void (i32, i32, ptr, ...) @ERR_set_error(i32 noundef 128, i32 noundef 3, ptr noundef null)
  store i32 0, ptr %4, align 4
  store i32 1, ptr %9, align 4
  br label %49

48:                                               ; preds = %42, %39
  store i32 1, ptr %4, align 4
  store i32 1, ptr %9, align 4
  br label %49

49:                                               ; preds = %48, %47, %24, %16
  call void @llvm.lifetime.end.p0(i64 8, ptr %8) #8
  %50 = load i32, ptr %4, align 4
  ret i32 %50
}

; Function Attrs: nounwind uwtable
define internal i32 @xor_sig_digest_signverify_init(ptr noundef %0, ptr noundef %1, ptr noundef %2, i32 noundef %3) #0 {
  %5 = alloca i32, align 4
  %6 = alloca ptr, align 8
  %7 = alloca ptr, align 8
  %8 = alloca ptr, align 8
  %9 = alloca i32, align 4
  %10 = alloca ptr, align 8
  %11 = alloca ptr, align 8
  %12 = alloca i32, align 4
  store ptr %0, ptr %6, align 8, !tbaa !13
  store ptr %1, ptr %7, align 8, !tbaa !30
  store ptr %2, ptr %8, align 8, !tbaa !13
  store i32 %3, ptr %9, align 4, !tbaa !27
  call void @llvm.lifetime.start.p0(i64 8, ptr %10) #8
  %13 = load ptr, ptr %6, align 8, !tbaa !13
  store ptr %13, ptr %10, align 8, !tbaa !13
  call void @llvm.lifetime.start.p0(i64 8, ptr %11) #8
  %14 = load ptr, ptr %7, align 8, !tbaa !30
  store ptr %14, ptr %11, align 8, !tbaa !30
  %15 = load ptr, ptr %11, align 8, !tbaa !30
  %16 = icmp eq ptr %15, null
  br i1 %16, label %17, label %18

17:                                               ; preds = %4
  store ptr @.str.69, ptr %11, align 8, !tbaa !30
  br label %18

18:                                               ; preds = %17, %4
  %19 = load ptr, ptr %10, align 8, !tbaa !13
  %20 = getelementptr inbounds nuw %struct.PROV_XORSIG_CTX, ptr %19, i32 0, i32 3
  %21 = load i8, ptr %20, align 8
  %22 = and i8 %21, -2
  %23 = or i8 %22, 0
  store i8 %23, ptr %20, align 8
  %24 = load ptr, ptr %6, align 8, !tbaa !13
  %25 = load ptr, ptr %8, align 8, !tbaa !13
  %26 = load i32, ptr %9, align 4, !tbaa !27
  %27 = call i32 @xor_sig_signverify_init(ptr noundef %24, ptr noundef %25, i32 noundef %26)
  %28 = icmp ne i32 %27, 0
  br i1 %28, label %30, label %29

29:                                               ; preds = %18
  store i32 0, ptr %5, align 4
  store i32 1, ptr %12, align 4
  br label %67

30:                                               ; preds = %18
  %31 = load ptr, ptr %10, align 8, !tbaa !13
  %32 = load ptr, ptr %11, align 8, !tbaa !30
  %33 = call i32 @xor_sig_setup_md(ptr noundef %31, ptr noundef %32, ptr noundef null)
  %34 = icmp ne i32 %33, 0
  br i1 %34, label %36, label %35

35:                                               ; preds = %30
  store i32 0, ptr %5, align 4
  store i32 1, ptr %12, align 4
  br label %67

36:                                               ; preds = %30
  %37 = call ptr @EVP_MD_CTX_new()
  %38 = load ptr, ptr %10, align 8, !tbaa !13
  %39 = getelementptr inbounds nuw %struct.PROV_XORSIG_CTX, ptr %38, i32 0, i32 8
  store ptr %37, ptr %39, align 8, !tbaa !147
  %40 = load ptr, ptr %10, align 8, !tbaa !13
  %41 = getelementptr inbounds nuw %struct.PROV_XORSIG_CTX, ptr %40, i32 0, i32 8
  %42 = load ptr, ptr %41, align 8, !tbaa !147
  %43 = icmp eq ptr %42, null
  br i1 %43, label %44, label %45

44:                                               ; preds = %36
  br label %56

45:                                               ; preds = %36
  %46 = load ptr, ptr %10, align 8, !tbaa !13
  %47 = getelementptr inbounds nuw %struct.PROV_XORSIG_CTX, ptr %46, i32 0, i32 8
  %48 = load ptr, ptr %47, align 8, !tbaa !147
  %49 = load ptr, ptr %10, align 8, !tbaa !13
  %50 = getelementptr inbounds nuw %struct.PROV_XORSIG_CTX, ptr %49, i32 0, i32 7
  %51 = load ptr, ptr %50, align 8, !tbaa !148
  %52 = call i32 @EVP_DigestInit_ex(ptr noundef %48, ptr noundef %51, ptr noundef null)
  %53 = icmp ne i32 %52, 0
  br i1 %53, label %55, label %54

54:                                               ; preds = %45
  br label %56

55:                                               ; preds = %45
  store i32 1, ptr %5, align 4
  store i32 1, ptr %12, align 4
  br label %67

56:                                               ; preds = %54, %44
  %57 = load ptr, ptr %10, align 8, !tbaa !13
  %58 = getelementptr inbounds nuw %struct.PROV_XORSIG_CTX, ptr %57, i32 0, i32 8
  %59 = load ptr, ptr %58, align 8, !tbaa !147
  call void @EVP_MD_CTX_free(ptr noundef %59)
  %60 = load ptr, ptr %10, align 8, !tbaa !13
  %61 = getelementptr inbounds nuw %struct.PROV_XORSIG_CTX, ptr %60, i32 0, i32 7
  %62 = load ptr, ptr %61, align 8, !tbaa !148
  call void @EVP_MD_free(ptr noundef %62)
  %63 = load ptr, ptr %10, align 8, !tbaa !13
  %64 = getelementptr inbounds nuw %struct.PROV_XORSIG_CTX, ptr %63, i32 0, i32 8
  store ptr null, ptr %64, align 8, !tbaa !147
  %65 = load ptr, ptr %10, align 8, !tbaa !13
  %66 = getelementptr inbounds nuw %struct.PROV_XORSIG_CTX, ptr %65, i32 0, i32 7
  store ptr null, ptr %66, align 8, !tbaa !148
  store i32 0, ptr %5, align 4
  store i32 1, ptr %12, align 4
  br label %67

67:                                               ; preds = %56, %55, %35, %29
  call void @llvm.lifetime.end.p0(i64 8, ptr %11) #8
  call void @llvm.lifetime.end.p0(i64 8, ptr %10) #8
  %68 = load i32, ptr %5, align 4
  ret i32 %68
}