; Function Attrs: nounwind uwtable
define internal fastcc range(i32 0, 2) i32 @xor_sig_digest_signverify_init(ptr noundef %0, ptr noundef %1, ptr noundef %2, i32 noundef range(i32 16, 33) %3) unnamed_addr #0 {
  %5 = getelementptr inbounds nuw i8, ptr %0, i64 24
  %6 = load i8, ptr %5, align 8
  %7 = and i8 %6, -2
  store i8 %7, ptr %5, align 8
  %8 = icmp eq ptr %0, null
  %9 = icmp eq ptr %2, null
  %or.cond.i = or i1 %8, %9
  br i1 %or.cond.i, label %xor_sig_signverify_init.exit.thread, label %10

10:                                               ; preds = %4
  %11 = getelementptr inbounds nuw i8, ptr %0, i64 16
  %12 = load ptr, ptr %11, align 8, !tbaa !111
  %13 = icmp eq ptr %12, null
  br i1 %13, label %xor_freekey.exit.i, label %14

14:                                               ; preds = %10
  %15 = getelementptr inbounds nuw i8, ptr %12, i64 80
  %16 = atomicrmw sub ptr %15, i32 1 release, align 4
  %17 = icmp eq i32 %16, 1
  br i1 %17, label %CRYPTO_DOWN_REF.exit.thread.i.i, label %CRYPTO_DOWN_REF.exit.i.i

CRYPTO_DOWN_REF.exit.thread.i.i:                  ; preds = %14
  fence acquire
  br label %19

CRYPTO_DOWN_REF.exit.i.i:                         ; preds = %14
  %18 = icmp sgt i32 %16, 1
  br i1 %18, label %xor_freekey.exit.i, label %19

19:                                               ; preds = %CRYPTO_DOWN_REF.exit.i.i, %CRYPTO_DOWN_REF.exit.thread.i.i
  %20 = getelementptr inbounds nuw i8, ptr %12, i64 72
  %21 = load ptr, ptr %20, align 8, !tbaa !46
  tail call void @CRYPTO_free(ptr noundef %21, ptr noundef nonnull @.str.2, i32 noundef 720) #16
  store ptr null, ptr %20, align 8, !tbaa !46
  tail call void @CRYPTO_free(ptr noundef nonnull %12, ptr noundef nonnull @.str.2, i32 noundef 724) #16
  br label %xor_freekey.exit.i

xor_freekey.exit.i:                               ; preds = %19, %CRYPTO_DOWN_REF.exit.i.i, %10
  %22 = getelementptr inbounds nuw i8, ptr %2, i64 80
  %23 = atomicrmw add ptr %22, i32 1 monotonic, align 4
  %24 = icmp slt i32 %23, 1
  br i1 %24, label %xor_sig_signverify_init.exit.thread, label %25

25:                                               ; preds = %xor_freekey.exit.i
  store ptr %2, ptr %11, align 8, !tbaa !111
  %26 = getelementptr inbounds nuw i8, ptr %0, i64 112
  store i32 %3, ptr %26, align 8, !tbaa !112
  %27 = icmp eq ptr %1, null
  %spec.store.select = select i1 %27, ptr @.str.69, ptr %1
  %28 = tail call fastcc i32 @xor_sig_setup_md(ptr noundef nonnull %0, ptr noundef nonnull %spec.store.select, ptr noundef null)
  %.not18 = icmp eq i32 %28, 0
  br i1 %.not18, label %xor_sig_signverify_init.exit.thread, label %29

29:                                               ; preds = %25
  %30 = tail call ptr @EVP_MD_CTX_new() #16
  %31 = getelementptr inbounds nuw i8, ptr %0, i64 104
  store ptr %30, ptr %31, align 8, !tbaa !114
  %32 = icmp eq ptr %30, null
  br i1 %32, label %37, label %33

33:                                               ; preds = %29
  %34 = getelementptr inbounds nuw i8, ptr %0, i64 96
  %35 = load ptr, ptr %34, align 8, !tbaa !115
  %36 = tail call i32 @EVP_DigestInit_ex(ptr noundef nonnull %30, ptr noundef %35, ptr noundef null) #16
  %.not19 = icmp eq i32 %36, 0
  br i1 %.not19, label %._crit_edge, label %xor_sig_signverify_init.exit.thread

._crit_edge:                                      ; preds = %33
  %.pre = load ptr, ptr %31, align 8, !tbaa !114
  br label %37

37:                                               ; preds = %._crit_edge, %29
  %38 = phi ptr [ %.pre, %._crit_edge ], [ null, %29 ]
  tail call void @EVP_MD_CTX_free(ptr noundef %38) #16
  %39 = getelementptr inbounds nuw i8, ptr %0, i64 96
  %40 = load ptr, ptr %39, align 8, !tbaa !115
  tail call void @EVP_MD_free(ptr noundef %40) #16
  tail call void @llvm.memset.p0.i64(ptr noundef nonnull align 8 dereferenceable(16) %39, i8 0, i64 16, i1 false)
  br label %xor_sig_signverify_init.exit.thread

xor_sig_signverify_init.exit.thread:              ; preds = %xor_freekey.exit.i, %4, %33, %25, %37
  %.0 = phi i32 [ 0, %37 ], [ 0, %25 ], [ 1, %33 ], [ 0, %4 ], [ 0, %xor_freekey.exit.i ]
  ret i32 %.0
}